target datalayout = "e-m:e-p270:32:32-p271:32:32-p272:64:64-i64:64-i128:128-f80:128-n8:16:32:64-S128"
target triple = "x86_64-pc-linux-gnu"

%struct.dt_pthread_mutex_t = type { %union.pthread_mutex_t }
%union.pthread_mutex_t = type { %struct.__pthread_mutex_s }
%struct.__pthread_mutex_s = type { i32, i32, i32, i32, i32, i16, i16, %struct.__pthread_internal_list }
%struct.__pthread_internal_list = type { ptr, ptr }
%struct.dt_film_t = type { i32, [512 x i8], %struct.dt_pthread_mutex_t, ptr, i32, i32, i32 }

@.str.12 = private unnamed_addr constant [5 x i8] c".gpx\00", align 1
@.str.13 = private unnamed_addr constant [5 x i8] c".GPX\00", align 1
@.str.14 = private unnamed_addr constant [2 x i8] c"/\00", align 1
@.str.15 = private unnamed_addr constant [33 x i8] c"plugins/lighttable/geotagging/tz\00", align 1

; Function Attrs: nounwind uwtable
define internal void @_apply_filmroll_gpx(ptr noundef %0) #0 {
  %2 = alloca ptr, align 8
  %3 = alloca ptr, align 8
  %4 = alloca i64, align 8
  %5 = alloca ptr, align 8
  %6 = alloca ptr, align 8
  store ptr %0, ptr %2, align 8, !tbaa !6
  %7 = load ptr, ptr %2, align 8, !tbaa !6
  %8 = icmp ne ptr %7, null
  br i1 %8, label %9, label %56

9:                                                ; preds = %1
  %10 = load ptr, ptr %2, align 8, !tbaa !6
  %11 = getelementptr inbounds nuw %struct.dt_film_t, ptr %10, i32 0, i32 3
  %12 = load ptr, ptr %11, align 8, !tbaa !83
  %13 = icmp ne ptr %12, null
  br i1 %13, label %14, label %56

14:                                               ; preds = %9
  %15 = load ptr, ptr %2, align 8, !tbaa !6
  %16 = getelementptr inbounds nuw %struct.dt_film_t, ptr %15, i32 0, i32 3
  %17 = load ptr, ptr %16, align 8, !tbaa !83
  call void @g_dir_rewind(ptr noundef %17)
  call void @llvm.lifetime.start.p0(i64 8, ptr %3) #9
  store ptr null, ptr %3, align 8, !tbaa !31
  br label %18

18:                                               ; preds = %54, %14
  %19 = load ptr, ptr %2, align 8, !tbaa !6
  %20 = getelementptr inbounds nuw %struct.dt_film_t, ptr %19, i32 0, i32 3
  %21 = load ptr, ptr %20, align 8, !tbaa !83
  %22 = call ptr @g_dir_read_name(ptr noundef %21)
  store ptr %22, ptr %3, align 8, !tbaa !31
  %23 = icmp ne ptr %22, null
  br i1 %23, label %24, label %55

24:                                               ; preds = %18
  call void @llvm.lifetime.start.p0(i64 8, ptr %4) #9
  %25 = load ptr, ptr %3, align 8, !tbaa !31
  %26 = call i64 @strlen(ptr noundef %25) #12
  store i64 %26, ptr %4, align 8, !tbaa !84
  %27 = load ptr, ptr %3, align 8, !tbaa !31
  %28 = load i64, ptr %4, align 8, !tbaa !84
  %29 = getelementptr inbounds nuw i8, ptr %27, i64 %28
  %30 = getelementptr inbounds i8, ptr %29, i64 -4
  %31 = call i32 @strcmp(ptr noundef %30, ptr noundef @.str.12) #12
  %32 = icmp eq i32 %31, 0
  br i1 %32, label %40, label %33

33:                                               ; preds = %24
  %34 = load ptr, ptr %3, align 8, !tbaa !31
  %35 = load i64, ptr %4, align 8, !tbaa !84
  %36 = getelementptr inbounds nuw i8, ptr %34, i64 %35
  %37 = getelementptr inbounds i8, ptr %36, i64 -4
  %38 = call i32 @strcmp(ptr noundef %37, ptr noundef @.str.13) #12
  %39 = icmp eq i32 %38, 0
  br i1 %39, label %40, label %54

40:                                               ; preds = %33, %24
  call void @llvm.lifetime.start.p0(i64 8, ptr %5) #9
  %41 = load ptr, ptr %2, align 8, !tbaa !6
  %42 = getelementptr inbounds nuw %struct.dt_film_t, ptr %41, i32 0, i32 1
  %43 = getelementptr inbounds [512 x i8], ptr %42, i64 0, i64 0
  %44 = load ptr, ptr %3, align 8, !tbaa !31
  %45 = call noalias ptr (ptr, ptr, ...) @g_build_path(ptr noundef @.str.14, ptr noundef %43, ptr noundef %44, ptr noundef null)
  store ptr %45, ptr %5, align 8, !tbaa !31
  call void @llvm.lifetime.start.p0(i64 8, ptr %6) #9
  %46 = call ptr @dt_conf_get_string(ptr noundef @.str.15)
  store ptr %46, ptr %6, align 8, !tbaa !31
  %47 = load ptr, ptr %5, align 8, !tbaa !31
  %48 = load ptr, ptr %2, align 8, !tbaa !6
  %49 = getelementptr inbounds nuw %struct.dt_film_t, ptr %48, i32 0, i32 0
  %50 = load i32, ptr %49, align 8, !tbaa !23
  %51 = load ptr, ptr %6, align 8, !tbaa !31
  call void @dt_control_gpx_apply(ptr noundef %47, i32 noundef %50, ptr noundef %51, ptr noundef null)
  %52 = load ptr, ptr %5, align 8, !tbaa !31
  call void @g_free(ptr noundef %52)
  %53 = load ptr, ptr %6, align 8, !tbaa !31
  call void @g_free(ptr noundef %53)
  call void @llvm.lifetime.end.p0(i64 8, ptr %6) #9
  call void @llvm.lifetime.end.p0(i64 8, ptr %5) #9
  br label %54

54:                                               ; preds = %40, %33
  call void @llvm.lifetime.end.p0(i64 8, ptr %4) #9
  br label %18

55:                                               ; preds = %18
  call void @llvm.lifetime.end.p0(i64 8, ptr %3) #9
  br label %56

56:                                               ; preds = %55, %9, %1
  ret void
}