; Function Attrs: nounwind uwtable
define internal fastcc void @_apply_filmroll_gpx(ptr noundef %0) unnamed_addr #0 {
  %.not = icmp eq ptr %0, null
  br i1 %.not, label %.loopexit, label %2

2:                                                ; preds = %1
  %3 = getelementptr inbounds nuw i8, ptr %0, i64 560
  %4 = load ptr, ptr %3, align 8, !tbaa !67
  %.not17 = icmp eq ptr %4, null
  br i1 %.not17, label %.loopexit, label %5

5:                                                ; preds = %2
  tail call void @g_dir_rewind(ptr noundef nonnull %4) #11
  %6 = load ptr, ptr %3, align 8, !tbaa !67
  %7 = tail call ptr @g_dir_read_name(ptr noundef %6) #11
  %.not1819 = icmp eq ptr %7, null
  br i1 %.not1819, label %.loopexit, label %.lr.ph

.lr.ph:                                           ; preds = %5
  %8 = getelementptr inbounds nuw i8, ptr %0, i64 4
  br label %9

9:                                                ; preds = %.lr.ph, %23
  %10 = phi ptr [ %7, %.lr.ph ], [ %25, %23 ]
  %11 = tail call i64 @strlen(ptr noundef nonnull dereferenceable(1) %10) #14
  %12 = getelementptr inbounds nuw i8, ptr %10, i64 %11
  %13 = getelementptr inbounds i8, ptr %12, i64 -4
  %14 = tail call i32 @strcmp(ptr noundef nonnull dereferenceable(1) %13, ptr noundef nonnull dereferenceable(5) @.str.12) #14
  %15 = icmp eq i32 %14, 0
  br i1 %15, label %19, label %16

16:                                               ; preds = %9
  %17 = tail call i32 @strcmp(ptr noundef nonnull dereferenceable(1) %13, ptr noundef nonnull dereferenceable(5) @.str.13) #14
  %18 = icmp eq i32 %17, 0
  br i1 %18, label %19, label %23

19:                                               ; preds = %16, %9
  %20 = tail call noalias ptr (ptr, ptr, ...) @g_build_path(ptr noundef nonnull @.str.14, ptr noundef nonnull %8, ptr noundef nonnull %10, ptr noundef null) #11
  %21 = tail call ptr @dt_conf_get_string(ptr noundef nonnull @.str.15) #11
  %22 = load i32, ptr %0, align 8, !tbaa !18
  tail call void @dt_control_gpx_apply(ptr noundef %20, i32 noundef %22, ptr noundef %21, ptr noundef null) #11
  tail call void @g_free(ptr noundef %20) #11
  tail call void @g_free(ptr noundef %21) #11
  br label %23

23:                                               ; preds = %19, %16
  %24 = load ptr, ptr %3, align 8, !tbaa !67
  %25 = tail call ptr @g_dir_read_name(ptr noundef %24) #11
  %.not18 = icmp eq ptr %25, null
  br i1 %.not18, label %.loopexit, label %9

.loopexit:                                        ; preds = %23, %5, %2, %1
  ret void
}